target datalayout = "e-m:e-p270:32:32-p271:32:32-p272:64:64-i64:64-i128:128-f80:128-n8:16:32:64-S128"
target triple = "x86_64-pc-linux-gnu"

%struct.IDAMemRec = type { ptr, double, ptr, ptr, i32, double, double, ptr, i32, i32, ptr, ptr, i32, i32, i32, ptr, ptr, i32, i32, double, double, ptr, i32, i32, i32, i32, ptr, ptr, i32, ptr, ptr, ptr, i32, double, i32, i32, double, ptr, ptr, ptr, i32, ptr, ptr, i32, i32, i32, double, ptr, ptr, ptr, [6 x ptr], [6 x double], [6 x double], [6 x double], [6 x double], [6 x double], ptr, ptr, ptr, ptr, ptr, ptr, ptr, ptr, ptr, ptr, ptr, ptr, ptr, ptr, ptr, ptr, ptr, [6 x ptr], ptr, ptr, ptr, ptr, [6 x ptr], ptr, ptr, ptr, ptr, ptr, ptr, ptr, ptr, ptr, ptr, ptr, ptr, ptr, ptr, ptr, ptr, [6 x ptr], ptr, ptr, ptr, ptr, ptr, double, ptr, ptr, i32, i32, i32, i32, i32, i32, i32, i32, double, double, double, i32, double, i32, i32, i32, i32, i32, double, double, double, double, double, double, double, double, double, double, double, double, double, double, double, double, double, i32, i32, i32, i32, i64, double, double, double, double, double, double, double, double, double, i64, i64, i64, i64, i64, i64, i64, i64, i64, i64, i64, i64, i64, i64, i64, i64, i64, i64, i64, i64, i64, i64, i64, i64, i64, i64, double, i32, i32, i32, i32, i32, i32, i32, i32, i32, i32, i32, i32, i32, ptr, i32, ptr, i32, ptr, i32, ptr, ptr, ptr, ptr, ptr, ptr, i32, i32, ptr, ptr, ptr, ptr, ptr, ptr, ptr, double, i32, i32, ptr, i32, ptr, ptr, double, double, double, ptr, ptr, ptr, double, double, i32, i32, i64, ptr, i32, ptr, [5 x double], ptr, ptr, i32, ptr, i32 }

@.str = private unnamed_addr constant [111 x i8] c"generated/home/dtcxzyw/WorkSpace/Projects/compilers/llvm-opt-benchmark/bench/sundials/sundials/src/idas/idas.c\00", align 1
@.str.3 = private unnamed_addr constant [24 x i8] c"ida_mem = NULL illegal.\00", align 1
@.str.12 = private unnamed_addr constant [52 x i8] c"Illegal attempt to call before calling IDAQuadInit.\00", align 1
@.str.13 = private unnamed_addr constant [19 x i8] c"rtolQ < 0 illegal.\00", align 1
@.str.14 = private unnamed_addr constant [43 x i8] c"atolQ has negative component(s) (illegal).\00", align 1
@__func__.IDAQuadSVtolerances = private unnamed_addr constant [20 x i8] c"IDAQuadSVtolerances\00", align 1
@.str.15 = private unnamed_addr constant [22 x i8] c"atolQ = NULL illegal.\00", align 1

; Function Attrs: nounwind uwtable
define i32 @IDAQuadSVtolerances(ptr noundef %0, double noundef %1, ptr noundef %2) #0 {
  %4 = alloca i32, align 4
  %5 = alloca ptr, align 8
  %6 = alloca double, align 8
  %7 = alloca ptr, align 8
  %8 = alloca ptr, align 8
  %9 = alloca double, align 8
  %10 = alloca i32, align 4
  store ptr %0, ptr %5, align 8, !tbaa !126
  store double %1, ptr %6, align 8, !tbaa !123
  store ptr %2, ptr %7, align 8, !tbaa !124
  call void @llvm.lifetime.start.p0(i64 8, ptr %8) #10
  call void @llvm.lifetime.start.p0(i64 8, ptr %9) #10
  %11 = load ptr, ptr %5, align 8, !tbaa !126
  %12 = icmp eq ptr %11, null
  br i1 %12, label %13, label %14

13:                                               ; preds = %3
  call void (ptr, i32, i32, ptr, ptr, ptr, ...) @IDAProcessError(ptr noundef null, i32 noundef -20, i32 noundef 1217, ptr noundef @__func__.IDAQuadSVtolerances, ptr noundef @.str, ptr noundef @.str.3)
  store i32 -20, ptr %4, align 4
  store i32 1, ptr %10, align 4
  br label %80

14:                                               ; preds = %3
  %15 = load ptr, ptr %5, align 8, !tbaa !126
  store ptr %15, ptr %8, align 8, !tbaa !8
  %16 = load ptr, ptr %8, align 8, !tbaa !8
  %17 = getelementptr inbounds nuw %struct.IDAMemRec, ptr %16, i32 0, i32 186
  %18 = load i32, ptr %17, align 8, !tbaa !92
  %19 = icmp eq i32 %18, 0
  br i1 %19, label %20, label %22

20:                                               ; preds = %14
  %21 = load ptr, ptr %8, align 8, !tbaa !8
  call void (ptr, i32, i32, ptr, ptr, ptr, ...) @IDAProcessError(ptr noundef %21, i32 noundef -30, i32 noundef 1225, ptr noundef @__func__.IDAQuadSVtolerances, ptr noundef @.str, ptr noundef @.str.12)
  store i32 -30, ptr %4, align 4
  store i32 1, ptr %10, align 4
  br label %80

22:                                               ; preds = %14
  %23 = load double, ptr %6, align 8, !tbaa !123
  %24 = fcmp olt double %23, 0.000000e+00
  br i1 %24, label %25, label %27

25:                                               ; preds = %22
  %26 = load ptr, ptr %8, align 8, !tbaa !8
  call void (ptr, i32, i32, ptr, ptr, ptr, ...) @IDAProcessError(ptr noundef %26, i32 noundef -22, i32 noundef 1233, ptr noundef @__func__.IDAQuadSVtolerances, ptr noundef @.str, ptr noundef @.str.13)
  store i32 -22, ptr %4, align 4
  store i32 1, ptr %10, align 4
  br label %80

27:                                               ; preds = %22
  %28 = load ptr, ptr %7, align 8, !tbaa !124
  %29 = icmp eq ptr %28, null
  br i1 %29, label %30, label %32

30:                                               ; preds = %27
  %31 = load ptr, ptr %8, align 8, !tbaa !8
  call void (ptr, i32, i32, ptr, ptr, ptr, ...) @IDAProcessError(ptr noundef %31, i32 noundef -22, i32 noundef 1240, ptr noundef @__func__.IDAQuadSVtolerances, ptr noundef @.str, ptr noundef @.str.15)
  store i32 -22, ptr %4, align 4
  store i32 1, ptr %10, align 4
  br label %80

32:                                               ; preds = %27
  %33 = load ptr, ptr %7, align 8, !tbaa !124
  %34 = call double @N_VMin(ptr noundef %33)
  store double %34, ptr %9, align 8, !tbaa !123
  %35 = load double, ptr %9, align 8, !tbaa !123
  %36 = fcmp olt double %35, 0.000000e+00
  br i1 %36, label %37, label %39

37:                                               ; preds = %32
  %38 = load ptr, ptr %8, align 8, !tbaa !8
  call void (ptr, i32, i32, ptr, ptr, ptr, ...) @IDAProcessError(ptr noundef %38, i32 noundef -22, i32 noundef 1248, ptr noundef @__func__.IDAQuadSVtolerances, ptr noundef @.str, ptr noundef @.str.14)
  store i32 -22, ptr %4, align 4
  store i32 1, ptr %10, align 4
  br label %80

39:                                               ; preds = %32
  %40 = load ptr, ptr %8, align 8, !tbaa !8
  %41 = getelementptr inbounds nuw %struct.IDAMemRec, ptr %40, i32 0, i32 18
  store i32 2, ptr %41, align 4, !tbaa !61
  %42 = load double, ptr %6, align 8, !tbaa !123
  %43 = load ptr, ptr %8, align 8, !tbaa !8
  %44 = getelementptr inbounds nuw %struct.IDAMemRec, ptr %43, i32 0, i32 19
  store double %42, ptr %44, align 8, !tbaa !200
  %45 = load ptr, ptr %8, align 8, !tbaa !8
  %46 = getelementptr inbounds nuw %struct.IDAMemRec, ptr %45, i32 0, i32 185
  %47 = load i32, ptr %46, align 4, !tbaa !91
  %48 = icmp eq i32 0, %47
  br i1 %48, label %49, label %70

49:                                               ; preds = %39
  %50 = load ptr, ptr %7, align 8, !tbaa !124
  %51 = call ptr @N_VClone(ptr noundef %50)
  %52 = load ptr, ptr %8, align 8, !tbaa !8
  %53 = getelementptr inbounds nuw %struct.IDAMemRec, ptr %52, i32 0, i32 21
  store ptr %51, ptr %53, align 8, !tbaa !202
  %54 = load ptr, ptr %8, align 8, !tbaa !8
  %55 = getelementptr inbounds nuw %struct.IDAMemRec, ptr %54, i32 0, i32 175
  %56 = load i64, ptr %55, align 8, !tbaa !192
  %57 = load ptr, ptr %8, align 8, !tbaa !8
  %58 = getelementptr inbounds nuw %struct.IDAMemRec, ptr %57, i32 0, i32 177
  %59 = load i64, ptr %58, align 8, !tbaa !85
  %60 = add nsw i64 %59, %56
  store i64 %60, ptr %58, align 8, !tbaa !85
  %61 = load ptr, ptr %8, align 8, !tbaa !8
  %62 = getelementptr inbounds nuw %struct.IDAMemRec, ptr %61, i32 0, i32 176
  %63 = load i64, ptr %62, align 8, !tbaa !193
  %64 = load ptr, ptr %8, align 8, !tbaa !8
  %65 = getelementptr inbounds nuw %struct.IDAMemRec, ptr %64, i32 0, i32 178
  %66 = load i64, ptr %65, align 8, !tbaa !86
  %67 = add nsw i64 %66, %63
  store i64 %67, ptr %65, align 8, !tbaa !86
  %68 = load ptr, ptr %8, align 8, !tbaa !8
  %69 = getelementptr inbounds nuw %struct.IDAMemRec, ptr %68, i32 0, i32 185
  store i32 1, ptr %69, align 4, !tbaa !91
  br label %70

70:                                               ; preds = %49, %39
  %71 = load ptr, ptr %7, align 8, !tbaa !124
  %72 = load ptr, ptr %8, align 8, !tbaa !8
  %73 = getelementptr inbounds nuw %struct.IDAMemRec, ptr %72, i32 0, i32 21
  %74 = load ptr, ptr %73, align 8, !tbaa !202
  call void @N_VScale(double noundef 1.000000e+00, ptr noundef %71, ptr noundef %74)
  %75 = load double, ptr %9, align 8, !tbaa !123
  %76 = fcmp oeq double %75, 0.000000e+00
  %77 = zext i1 %76 to i32
  %78 = load ptr, ptr %8, align 8, !tbaa !8
  %79 = getelementptr inbounds nuw %struct.IDAMemRec, ptr %78, i32 0, i32 22
  store i32 %77, ptr %79, align 8, !tbaa !62
  store i32 0, ptr %4, align 4
  store i32 1, ptr %10, align 4
  br label %80

80:                                               ; preds = %70, %37, %30, %25, %20, %13
  call void @llvm.lifetime.end.p0(i64 8, ptr %9) #10
  call void @llvm.lifetime.end.p0(i64 8, ptr %8) #10
  %81 = load i32, ptr %4, align 4
  ret i32 %81
}