; Function Attrs: nounwind uwtable
define range(i32 -30, 1) i32 @IDAQuadSVtolerances(ptr noundef captures(address_is_null) %0, double noundef %1, ptr noundef %2) local_unnamed_addr #0 {
  %4 = icmp eq ptr %0, null
  br i1 %4, label %5, label %6

5:                                                ; preds = %3
  tail call void (ptr, i32, i32, ptr, ptr, ptr, ...) @IDAProcessError(ptr noundef null, i32 noundef -20, i32 noundef 1217, ptr noundef nonnull @__func__.IDAQuadSVtolerances, ptr noundef nonnull @.str, ptr noundef nonnull @.str.3)
  br label %45

6:                                                ; preds = %3
  %7 = getelementptr inbounds nuw i8, ptr %0, i64 1704
  %8 = load i32, ptr %7, align 8, !tbaa !162
  %9 = icmp eq i32 %8, 0
  br i1 %9, label %10, label %11

10:                                               ; preds = %6
  tail call void (ptr, i32, i32, ptr, ptr, ptr, ...) @IDAProcessError(ptr noundef nonnull %0, i32 noundef -30, i32 noundef 1225, ptr noundef nonnull @__func__.IDAQuadSVtolerances, ptr noundef nonnull @.str, ptr noundef nonnull @.str.12)
  br label %45

11:                                               ; preds = %6
  %12 = fcmp olt double %1, 0.000000e+00
  br i1 %12, label %13, label %14

13:                                               ; preds = %11
  tail call void (ptr, i32, i32, ptr, ptr, ptr, ...) @IDAProcessError(ptr noundef nonnull %0, i32 noundef -22, i32 noundef 1233, ptr noundef nonnull @__func__.IDAQuadSVtolerances, ptr noundef nonnull @.str, ptr noundef nonnull @.str.13)
  br label %45

14:                                               ; preds = %11
  %15 = icmp eq ptr %2, null
  br i1 %15, label %16, label %17

16:                                               ; preds = %14
  tail call void (ptr, i32, i32, ptr, ptr, ptr, ...) @IDAProcessError(ptr noundef nonnull %0, i32 noundef -22, i32 noundef 1240, ptr noundef nonnull @__func__.IDAQuadSVtolerances, ptr noundef nonnull @.str, ptr noundef nonnull @.str.15)
  br label %45

17:                                               ; preds = %14
  %18 = tail call double @N_VMin(ptr noundef nonnull %2) #14
  %19 = fcmp olt double %18, 0.000000e+00
  br i1 %19, label %20, label %21

20:                                               ; preds = %17
  tail call void (ptr, i32, i32, ptr, ptr, ptr, ...) @IDAProcessError(ptr noundef nonnull %0, i32 noundef -22, i32 noundef 1248, ptr noundef nonnull @__func__.IDAQuadSVtolerances, ptr noundef nonnull @.str, ptr noundef nonnull @.str.14)
  br label %45

21:                                               ; preds = %17
  %22 = getelementptr inbounds nuw i8, ptr %0, i64 124
  store i32 2, ptr %22, align 4, !tbaa !43
  %23 = getelementptr inbounds nuw i8, ptr %0, i64 128
  store double %1, ptr %23, align 8, !tbaa !163
  %24 = getelementptr inbounds nuw i8, ptr %0, i64 1700
  %25 = load i32, ptr %24, align 4, !tbaa !165
  %26 = icmp eq i32 %25, 0
  br i1 %26, label %27, label %._crit_edge

._crit_edge:                                      ; preds = %21
  %.phi.trans.insert = getelementptr inbounds nuw i8, ptr %0, i64 144
  %.pre = load ptr, ptr %.phi.trans.insert, align 8, !tbaa !166
  br label %40

27:                                               ; preds = %21
  %28 = tail call ptr @N_VClone(ptr noundef nonnull %2) #14
  %29 = getelementptr inbounds nuw i8, ptr %0, i64 144
  store ptr %28, ptr %29, align 8, !tbaa !166
  %30 = getelementptr inbounds nuw i8, ptr %0, i64 1640
  %31 = load i64, ptr %30, align 8, !tbaa !154
  %32 = getelementptr inbounds nuw i8, ptr %0, i64 1656
  %33 = load i64, ptr %32, align 8, !tbaa !64
  %34 = add nsw i64 %33, %31
  store i64 %34, ptr %32, align 8, !tbaa !64
  %35 = getelementptr inbounds nuw i8, ptr %0, i64 1648
  %36 = load i64, ptr %35, align 8, !tbaa !155
  %37 = getelementptr inbounds nuw i8, ptr %0, i64 1664
  %38 = load i64, ptr %37, align 8, !tbaa !65
  %39 = add nsw i64 %38, %36
  store i64 %39, ptr %37, align 8, !tbaa !65
  store i32 1, ptr %24, align 4, !tbaa !165
  br label %40

40:                                               ; preds = %._crit_edge, %27
  %41 = phi ptr [ %.pre, %._crit_edge ], [ %28, %27 ]
  tail call void @N_VScale(double noundef 1.000000e+00, ptr noundef nonnull %2, ptr noundef %41) #14
  %42 = fcmp oeq double %18, 0.000000e+00
  %43 = zext i1 %42 to i32
  %44 = getelementptr inbounds nuw i8, ptr %0, i64 152
  store i32 %43, ptr %44, align 8, !tbaa !44
  br label %45

45:                                               ; preds = %40, %20, %16, %13, %10, %5
  %.0 = phi i32 [ -20, %5 ], [ -30, %10 ], [ -22, %13 ], [ -22, %16 ], [ -22, %20 ], [ 0, %40 ]
  ret i32 %.0
}